; Function Attrs: mustprogress uwtable
define void @_ZNK16DecodeAsDelegate13destroyEditorEP7QWidgetRK11QModelIndex(ptr noundef nonnull align 8 dereferenceable(48) %0, ptr noundef %1, ptr noundef nonnull align 8 dereferenceable(24) %2) unnamed_addr #0 align 2 personality ptr @__gxx_personality_v0 {
  %4 = alloca %class.QVariant, align 8
  %5 = getelementptr inbounds i8, ptr %2, i64 4
  %6 = load i32, ptr %5, align 4
  %7 = icmp eq i32 %6, 4
  br i1 %7, label %.preheader, label %.loopexit

.preheader:                                       ; preds = %3
  %8 = tail call noundef i32 @_ZNK9QComboBox5countEv(ptr noundef nonnull align 8 dereferenceable(40) %1)
  %9 = icmp sgt i32 %8, 0
  br i1 %9, label %.lr.ph, label %.loopexit

.lr.ph:                                           ; preds = %.preheader, %17
  %.012 = phi i32 [ %18, %17 ], [ 0, %.preheader ]
  call void @_ZNK9QComboBox8itemDataEii(ptr dead_on_unwind nonnull writable sret(%class.QVariant) align 8 %4, ptr noundef nonnull align 8 dereferenceable(40) %1, i32 noundef %.012, i32 noundef 256)
  %10 = invoke noundef ptr @_Z13qvariant_castIPvET_RK8QVariant(ptr noundef nonnull align 8 dereferenceable(32) %4)
          to label %_ZN14VariantPointerI17_dissector_info_tE5asPtrE8QVariant.exit unwind label %21

_ZN14VariantPointerI17_dissector_info_tE5asPtrE8QVariant.exit: ; preds = %.lr.ph
  %11 = icmp eq ptr %10, null
  br i1 %11, label %17, label %12

12:                                               ; preds = %_ZN14VariantPointerI17_dissector_info_tE5asPtrE8QVariant.exit
  %13 = load ptr, ptr %10, align 8
  %.not.i.i.i.i = icmp eq ptr %13, null
  br i1 %.not.i.i.i.i, label %_ZN17_dissector_info_tD2Ev.exit, label %_ZN17QArrayDataPointerIDsE5derefEv.exit.i.i.i

_ZN17QArrayDataPointerIDsE5derefEv.exit.i.i.i:    ; preds = %12
  %14 = atomicrmw sub ptr %13, i32 1 seq_cst, align 4
  %.not.i.i.i = icmp eq i32 %14, 1
  br i1 %.not.i.i.i, label %15, label %_ZN17_dissector_info_tD2Ev.exit

15:                                               ; preds = %_ZN17QArrayDataPointerIDsE5derefEv.exit.i.i.i
  %16 = load ptr, ptr %10, align 8
  call void @_ZN10QArrayData10deallocateEPS_xx(ptr noundef %16, i64 noundef 2, i64 noundef 8) #17
  br label %_ZN17_dissector_info_tD2Ev.exit

_ZN17_dissector_info_tD2Ev.exit:                  ; preds = %12, %_ZN17QArrayDataPointerIDsE5derefEv.exit.i.i.i, %15
  call void @_ZdlPv(ptr noundef nonnull %10) #19
  br label %17

17:                                               ; preds = %_ZN17_dissector_info_tD2Ev.exit, %_ZN14VariantPointerI17_dissector_info_tE5asPtrE8QVariant.exit
  call void @_ZN8QVariantD1Ev(ptr noundef nonnull align 8 dereferenceable(32) %4) #17
  %18 = add nuw nsw i32 %.012, 1
  %19 = call noundef i32 @_ZNK9QComboBox5countEv(ptr noundef nonnull align 8 dereferenceable(40) %1)
  %20 = icmp slt i32 %18, %19
  br i1 %20, label %.lr.ph, label %.loopexit, !llvm.loop !57

21:                                               ; preds = %.lr.ph
  %22 = landingpad { ptr, i32 }
          cleanup
  call void @_ZN8QVariantD1Ev(ptr noundef nonnull align 8 dereferenceable(32) %4) #17
  resume { ptr, i32 } %22

.loopexit:                                        ; preds = %17, %.preheader, %3
  call void @_ZNK21QAbstractItemDelegate13destroyEditorEP7QWidgetRK11QModelIndex(ptr noundef nonnull align 8 dereferenceable(16) %0, ptr noundef %1, ptr noundef nonnull align 8 dereferenceable(24) %2)
  ret void
}